target datalayout = "e-m:e-p270:32:32-p271:32:32-p272:64:64-i64:64-i128:128-f80:128-n8:16:32:64-S128"
target triple = "x86_64-pc-linux-gnu"

%struct.option = type { i32, i32, ptr, ptr, ptr, ptr, i32, ptr, i64, ptr, i64, ptr }

@the_repository = external global ptr, align 8

; Function Attrs: nounwind uwtable
define internal i32 @parse_object_dir(ptr noundef %0, ptr noundef %1, i32 noundef %2) #0 {
  %4 = alloca ptr, align 8
  %5 = alloca ptr, align 8
  %6 = alloca i32, align 4
  %7 = alloca ptr, align 8
  store ptr %0, ptr %4, align 8, !tbaa !30
  store ptr %1, ptr %5, align 8, !tbaa !11
  store i32 %2, ptr %6, align 4, !tbaa !4
  call void @llvm.lifetime.start.p0(i64 8, ptr %7) #9
  %8 = load ptr, ptr %4, align 8, !tbaa !30
  %9 = getelementptr inbounds nuw %struct.option, ptr %8, i32 0, i32 3
  %10 = load ptr, ptr %9, align 8, !tbaa !21
  store ptr %10, ptr %7, align 8, !tbaa !8
  %11 = load ptr, ptr %7, align 8, !tbaa !8
  %12 = load ptr, ptr %11, align 8, !tbaa !11
  call void @free(ptr noundef %12) #9
  %13 = load i32, ptr %6, align 4, !tbaa !4
  %14 = icmp ne i32 %13, 0
  br i1 %14, label %15, label %20

15:                                               ; preds = %3
  %16 = load ptr, ptr @the_repository, align 8, !tbaa !13
  %17 = call ptr @repo_get_object_directory(ptr noundef %16)
  %18 = call ptr @xstrdup(ptr noundef %17)
  %19 = load ptr, ptr %7, align 8, !tbaa !8
  store ptr %18, ptr %19, align 8, !tbaa !11
  br label %24

20:                                               ; preds = %3
  %21 = load ptr, ptr %5, align 8, !tbaa !11
  %22 = call ptr @real_pathdup(ptr noundef %21, i32 noundef 1)
  %23 = load ptr, ptr %7, align 8, !tbaa !8
  store ptr %22, ptr %23, align 8, !tbaa !11
  br label %24

24:                                               ; preds = %20, %15
  call void @llvm.lifetime.end.p0(i64 8, ptr %7) #9
  ret i32 0
}