; Function Attrs: nounwind uwtable
define internal noundef i32 @parse_object_dir(ptr noundef readonly captures(none) %0, ptr noundef %1, i32 noundef %2) #0 {
  %4 = getelementptr inbounds nuw i8, ptr %0, i64 16
  %5 = load ptr, ptr %4, align 8, !tbaa !15
  %6 = load ptr, ptr %5, align 8, !tbaa !56
  tail call void @free(ptr noundef %6) #9
  %.not = icmp eq i32 %2, 0
  br i1 %.not, label %11, label %7

7:                                                ; preds = %3
  %8 = load ptr, ptr @the_repository, align 8, !tbaa !17
  %9 = tail call ptr @repo_get_object_directory(ptr noundef %8) #9
  %10 = tail call ptr @xstrdup(ptr noundef %9) #9
  br label %13

11:                                               ; preds = %3
  %12 = tail call ptr @real_pathdup(ptr noundef %1, i32 noundef 1) #9
  br label %13

13:                                               ; preds = %11, %7
  %storemerge = phi ptr [ %12, %11 ], [ %10, %7 ]
  store ptr %storemerge, ptr %5, align 8, !tbaa !56
  ret i32 0
}